ccopy_reg
_reconstructor
p0
(csklearn.pipeline
Pipeline
p1
c__builtin__
object
p2
Ntp3
Rp4
(dp5
S'steps'
p6
(lp7
(S'scaler'
p8
g0
(csklearn.preprocessing.data
MinMaxScaler
p9
g2
Ntp10
Rp11
(dp12
S'copy'
p13
I00
sS'feature_range'
p14
(I0
I1
tp15
sbtp16
a(S'selection'
p17
g0
(csklearn.feature_selection.univariate_selection
SelectKBest
p18
g2
Ntp19
Rp20
(dp21
S'k'
p22
I5
sS'score_func'
p23
csklearn.feature_selection.univariate_selection
f_classif
p24
sbtp25
a(S'clf'
p26
g0
(csklearn.naive_bayes
GaussianNB
p27
g2
Ntp28
Rp29
tp30
asb.