(lp0
S'poi'
p1
aS'deferral_payments'
p2
aS'total_payments'
p3
aS'exercised_stock_options'
p4
aS'bonus'
p5
aS'restricted_stock'
p6
aS'shared_receipt_with_poi'
p7
aS'restricted_stock_deferred'
p8
aS'total_stock_value'
p9
aS'expenses'
p10
aS'loan_advances'
p11
aS'other'
p12
aS'salary'
p13
aS'director_fees'
p14
aS'deferred_income'
p15
aS'long_term_incentive'
p16
aS'fraction_from_poi'
p17
aS'fraction_to_poi'
p18
a.